; Function Attrs: mustprogress nounwind uwtable
define hidden void @_ZN2cv4DSSTD2Ev(ptr noundef nonnull align 8 dereferenceable(556) %0) unnamed_addr #8 align 2 personality ptr @__gxx_personality_v0 {
  %2 = getelementptr inbounds nuw i8, ptr %0, i64 416
  tail call void @_ZN2cv3MatD1Ev(ptr noundef nonnull align 8 dereferenceable(96) %2) #20
  %3 = getelementptr inbounds nuw i8, ptr %0, i64 320
  tail call void @_ZN2cv3MatD1Ev(ptr noundef nonnull align 8 dereferenceable(96) %3) #20
  %4 = getelementptr inbounds nuw i8, ptr %0, i64 296
  %5 = load ptr, ptr %4, align 8, !tbaa !42
  %.not.i.i.i = icmp eq ptr %5, null
  br i1 %.not.i.i.i, label %_ZNSt6vectorIfSaIfEED2Ev.exit, label %6

6:                                                ; preds = %1
  tail call void @_ZdlPv(ptr noundef nonnull %5) #23
  br label %_ZNSt6vectorIfSaIfEED2Ev.exit

_ZNSt6vectorIfSaIfEED2Ev.exit:                    ; preds = %1, %6
  %7 = getelementptr inbounds nuw i8, ptr %0, i64 200
  tail call void @_ZN2cv3MatD1Ev(ptr noundef nonnull align 8 dereferenceable(96) %7) #20
  %8 = getelementptr inbounds nuw i8, ptr %0, i64 104
  tail call void @_ZN2cv3MatD1Ev(ptr noundef nonnull align 8 dereferenceable(96) %8) #20
  %9 = getelementptr inbounds nuw i8, ptr %0, i64 8
  tail call void @_ZN2cv3MatD1Ev(ptr noundef nonnull align 8 dereferenceable(96) %9) #20
  ret void
}